(dp0
S'FFT'
p1
(dp2
S'Dist2Heaven'
p3
(lp4
(lp5
F0.252
aF0.252
aa(lp6
ccollections
OrderedDict
p7
((lp8
(lp9
S'max_level'
p10
aI4
aa(lp11
S'split_method'
p12
aS'median'
p13
aa(lp14
S'ifan'
p15
aI00
aatp16
Rp17
ag7
((lp18
(lp19
g10
aI4
aa(lp20
g12
ag13
aa(lp21
g15
aI00
aatp22
Rp23
aaF317.5608379840851
asS'LOC_AUC'
p24
(lp25
(lp26
F0.578
aF0.578
aa(lp27
g7
((lp28
(lp29
g10
aI4
aa(lp30
g12
ag13
aa(lp31
g15
aI00
aatp32
Rp33
ag7
((lp34
(lp35
g10
aI4
aa(lp36
g12
ag13
aa(lp37
g15
aI00
aatp38
Rp39
aaF488.09397411346436
asS'Accuracy'
p40
(lp41
(lp42
F0.733
aF0.733
aa(lp43
g7
((lp44
(lp45
g10
aI4
aa(lp46
g12
ag13
aa(lp47
g15
aI00
aatp48
Rp49
ag7
((lp50
(lp51
g10
aI4
aa(lp52
g12
ag13
aa(lp53
g15
aI00
aatp54
Rp55
aaF449.344162940979
ass.