(dp0
S'FFT'
p1
(dp2
S'Dist2Heaven'
p3
(lp4
(lp5
F0.326
aF0.326
aF0.326
aa(lp6
ccollections
OrderedDict
p7
((lp8
(lp9
S'max_level'
p10
aI5
aa(lp11
S'split_method'
p12
aS'median'
p13
aatp14
Rp15
ag7
((lp16
(lp17
g10
aI5
aa(lp18
g12
ag13
aatp19
Rp20
ag7
((lp21
(lp22
g10
aI5
aa(lp23
g12
ag13
aatp24
Rp25
aaF958.7150278091431
asS'LOC_AUC'
p26
(lp27
(lp28
F0.572
aF0.572
aF0.571
aa(lp29
g7
((lp30
(lp31
g10
aI5
aa(lp32
g12
ag13
aatp33
Rp34
ag7
((lp35
(lp36
g10
aI5
aa(lp37
g12
ag13
aatp38
Rp39
ag7
((lp40
(lp41
g10
aI5
aa(lp42
g12
ag13
aatp43
Rp44
aaF948.6008310317993
ass.